; Function Attrs: mustprogress uwtable
define void @_ZNK2cv8FileNode4nameB5cxx11Ev(ptr dead_on_unwind noalias writable sret(%"class.std::__cxx11::basic_string") align 8 %0, ptr noundef nonnull readonly align 8 captures(none) dereferenceable(24) %1) local_unnamed_addr #13 align 2 personality ptr @__gxx_personality_v0 {
  %3 = load ptr, ptr %1, align 8, !tbaa !250
  %.not.i = icmp eq ptr %3, null
  br i1 %.not.i, label %_ZNK2cv8FileNode3ptrEv.exit.thread, label %_ZNK2cv8FileNode3ptrEv.exit

_ZNK2cv8FileNode3ptrEv.exit:                      ; preds = %2
  %4 = getelementptr inbounds nuw i8, ptr %1, i64 8
  %5 = load i64, ptr %4, align 8, !tbaa !253
  %6 = getelementptr inbounds nuw i8, ptr %1, i64 16
  %7 = load i64, ptr %6, align 8, !tbaa !254
  %8 = tail call noundef ptr @_ZNK2cv11FileStorage4Impl10getNodePtrEmm(ptr noundef nonnull align 8 dereferenceable(700) %3, i64 noundef %5, i64 noundef %7)
  %.not = icmp eq ptr %8, null
  br i1 %.not, label %_ZNK2cv8FileNode3ptrEv.exit.thread, label %11

_ZNK2cv8FileNode3ptrEv.exit.thread:               ; preds = %2, %_ZNK2cv8FileNode3ptrEv.exit
  %9 = getelementptr inbounds nuw i8, ptr %0, i64 16
  store ptr %9, ptr %0, align 8, !tbaa !130
  %10 = getelementptr inbounds nuw i8, ptr %0, i64 8
  store i64 0, ptr %10, align 8, !tbaa !18
  store i8 0, ptr %9, align 8, !tbaa !5
  br label %16

11:                                               ; preds = %_ZNK2cv8FileNode3ptrEv.exit
  %12 = getelementptr inbounds nuw i8, ptr %8, i64 1
  %13 = load i32, ptr %12, align 1
  %14 = sext i32 %13 to i64
  %15 = load ptr, ptr %1, align 8, !tbaa !250
  tail call void @_ZNK2cv11FileStorage4Impl7getNameB5cxx11Em(ptr dead_on_unwind writable sret(%"class.std::__cxx11::basic_string") align 8 %0, ptr noundef nonnull align 8 dereferenceable(700) %15, i64 noundef %14)
  br label %16

16:                                               ; preds = %11, %_ZNK2cv8FileNode3ptrEv.exit.thread
  ret void
}